; Listing generated by Microsoft (R) Optimizing Compiler Version 19.00.24210.0 

include listing.inc

INCLUDELIB OLDNAMES

PUBLIC	_gUefiDriverRevision
PUBLIC	??_C@_0N@CDOCBDDI@MyHelloWorld?$AA@		; `string'
PUBLIC	??_C@_0CB@DMEJJJHA@?6ASSERT_EFI_ERROR?5?$CIStatus?5?$DN?5?$CFr?$CJ?6@ ; `string'
PUBLIC	??_C@_0BE@DCHLEIGN@?$CBEFI_ERROR?5?$CIStatus?$CJ?$AA@ ; `string'
PUBLIC	??_C@_0EP@JODOHNIL@C?3?2Projetos?2caiuxo?2uefi_app?2RELE@ ; `string'
PUBLIC	gEfiGlobalVariableGuid
PUBLIC	_gPcd_FixedAtBuild_PcdMaximumUnicodeStringLength
PUBLIC	gEfiSimpleTextOutProtocolGuid
PUBLIC	_gPcd_FixedAtBuild_PcdUefiLibMaxPrintBufferSize
PUBLIC	gEfiGraphicsOutputProtocolGuid
PUBLIC	gEfiUgaDrawProtocolGuid
PUBLIC	_gPcd_FixedAtBuild_PcdMaximumAsciiStringLength
PUBLIC	gEfiHiiFontProtocolGuid
;	COMDAT gEfiHiiFontProtocolGuid
_DATA	SEGMENT
gEfiHiiFontProtocolGuid DD 0e9ca4775H
	DW	08657H
	DW	047fcH
	DB	097H
	DB	0e7H
	DB	07eH
	DB	0d6H
	DB	05aH
	DB	08H
	DB	043H
	DB	024H
_DATA	ENDS
;	COMDAT _gPcd_FixedAtBuild_PcdMaximumAsciiStringLength
CONST	SEGMENT
_gPcd_FixedAtBuild_PcdMaximumAsciiStringLength DD 0f4240H
CONST	ENDS
;	COMDAT gEfiUgaDrawProtocolGuid
_DATA	SEGMENT
gEfiUgaDrawProtocolGuid DD 0982c298bH
	DW	0f4faH
	DW	041cbH
	DB	0b8H
	DB	038H
	DB	077H
	DB	0aaH
	DB	068H
	DB	08fH
	DB	0b8H
	DB	039H
_DATA	ENDS
;	COMDAT gEfiGraphicsOutputProtocolGuid
_DATA	SEGMENT
gEfiGraphicsOutputProtocolGuid DD 09042a9deH
	DW	023dcH
	DW	04a38H
	DB	096H
	DB	0fbH
	DB	07aH
	DB	0deH
	DB	0d0H
	DB	080H
	DB	051H
	DB	06aH
_DATA	ENDS
;	COMDAT _gPcd_FixedAtBuild_PcdUefiLibMaxPrintBufferSize
CONST	SEGMENT
_gPcd_FixedAtBuild_PcdUefiLibMaxPrintBufferSize DD 0140H
CONST	ENDS
;	COMDAT gEfiSimpleTextOutProtocolGuid
_DATA	SEGMENT
gEfiSimpleTextOutProtocolGuid DD 0387477c2H
	DW	069c7H
	DW	011d2H
	DB	08eH
	DB	039H
	DB	00H
	DB	0a0H
	DB	0c9H
	DB	069H
	DB	072H
	DB	03bH
_DATA	ENDS
;	COMDAT _gPcd_FixedAtBuild_PcdMaximumUnicodeStringLength
CONST	SEGMENT
_gPcd_FixedAtBuild_PcdMaximumUnicodeStringLength DD 0f4240H
CONST	ENDS
;	COMDAT gEfiGlobalVariableGuid
_DATA	SEGMENT
gEfiGlobalVariableGuid DD 08be4df61H
	DW	093caH
	DW	011d2H
	DB	0aaH
	DB	0dH
	DB	00H
	DB	0e0H
	DB	098H
	DB	03H
	DB	02bH
	DB	08cH
_DATA	ENDS
;	COMDAT ??_C@_0EP@JODOHNIL@C?3?2Projetos?2caiuxo?2uefi_app?2RELE@
CONST	SEGMENT
??_C@_0EP@JODOHNIL@C?3?2Projetos?2caiuxo?2uefi_app?2RELE@ DB 'C:\Projetos'
	DB	'\caiuxo\uefi_app\RELEASE_VS2015x86\X64\MyHelloWorld\DEBUG\Aut'
	DB	'oGen.c', 00H				; `string'
CONST	ENDS
;	COMDAT ??_C@_0BE@DCHLEIGN@?$CBEFI_ERROR?5?$CIStatus?$CJ?$AA@
CONST	SEGMENT
??_C@_0BE@DCHLEIGN@?$CBEFI_ERROR?5?$CIStatus?$CJ?$AA@ DB '!EFI_ERROR (Sta'
	DB	'tus)', 00H					; `string'
CONST	ENDS
;	COMDAT ??_C@_0CB@DMEJJJHA@?6ASSERT_EFI_ERROR?5?$CIStatus?5?$DN?5?$CFr?$CJ?6@
CONST	SEGMENT
??_C@_0CB@DMEJJJHA@?6ASSERT_EFI_ERROR?5?$CIStatus?5?$DN?5?$CFr?$CJ?6@ DB 0aH
	DB	'ASSERT_EFI_ERROR (Status = %r)', 0aH, 00H	; `string'
CONST	ENDS
;	COMDAT ??_C@_0N@CDOCBDDI@MyHelloWorld?$AA@
CONST	SEGMENT
??_C@_0N@CDOCBDDI@MyHelloWorld?$AA@ DB 'MyHelloWorld', 00H ; `string'
_gUefiDriverRevision DD 00H
CONST	ENDS
PUBLIC	ProcessLibraryDestructorList
PUBLIC	ProcessLibraryConstructorList
PUBLIC	ProcessModuleEntryPointList
;	COMDAT pdata
pdata	SEGMENT
$pdata$ProcessModuleEntryPointList DD imagerel $LN6
	DD	imagerel $LN6+23
	DD	imagerel $unwind$ProcessModuleEntryPointList
;	COMDAT xdata
xdata	SEGMENT
$unwind$ProcessModuleEntryPointList DD 010401H
	DD	04204H
; Function compile flags: /Ogspy
; File c:\projetos\caiuxo\uefi_app\release_vs2015x86\x64\myhelloworld\debug\autogen.c
; File c:\projetos\caiuxo\uefi_app\myhelloworld.c
; File c:\projetos\caiuxo\uefi_app\release_vs2015x86\x64\myhelloworld\debug\autogen.c
;	COMDAT ProcessModuleEntryPointList
_TEXT	SEGMENT
ImageHandle$dead$ = 48
SystemTable$dead$ = 56
ProcessModuleEntryPointList PROC			; COMDAT

; 227  : {

$LN6:
  00000	48 83 ec 28	 sub	 rsp, 40			; 00000028H
; File c:\projetos\caiuxo\uefi_app\myhelloworld.c

; 29   :   Print(L"Hello World \n"); 

  00004	48 8d 0d 00 00
	00 00		 lea	 rcx, OFFSET FLAT:??_C@_1BM@IDMFOBAL@?$AAH?$AAe?$AAl?$AAl?$AAo?$AA?5?$AAW?$AAo?$AAr?$AAl?$AAd?$AA?5?$AA?6?$AA?$AA@
  0000b	e8 00 00 00 00	 call	 Print
; File c:\projetos\caiuxo\uefi_app\release_vs2015x86\x64\myhelloworld\debug\autogen.c

; 228  :   return UefiMain (ImageHandle, SystemTable);

  00010	33 c0		 xor	 eax, eax

; 229  : }

  00012	48 83 c4 28	 add	 rsp, 40			; 00000028H
  00016	c3		 ret	 0
ProcessModuleEntryPointList ENDP
_TEXT	ENDS
; Function compile flags: /Ogspy
; File c:\projetos\caiuxo\uefi_app\release_vs2015x86\x64\myhelloworld\debug\autogen.c
;	COMDAT ProcessLibraryConstructorList
_TEXT	SEGMENT
ImageHandle$ = 8
SystemTable$ = 16
ProcessLibraryConstructorList PROC			; COMDAT

; 192  :   EFI_STATUS  Status;
; 193  : 
; 194  :   Status = UefiBootServicesTableLibConstructor (ImageHandle, SystemTable);

  00000	48 8b 42 60	 mov	 rax, QWORD PTR [rdx+96]
  00004	48 89 05 00 00
	00 00		 mov	 QWORD PTR gBS, rax

; 195  :   ASSERT_EFI_ERROR (Status);
; 196  : 
; 197  :   Status = UefiRuntimeServicesTableLibConstructor (ImageHandle, SystemTable);

  0000b	48 8b 42 58	 mov	 rax, QWORD PTR [rdx+88]
  0000f	48 89 05 00 00
	00 00		 mov	 QWORD PTR gRT, rax
  00016	48 89 0d 00 00
	00 00		 mov	 QWORD PTR gImageHandle, rcx
  0001d	48 89 15 00 00
	00 00		 mov	 QWORD PTR gST, rdx

; 198  :   ASSERT_EFI_ERROR (Status);
; 199  : 
; 200  :   Status = UefiLibConstructor (ImageHandle, SystemTable);
; 201  :   ASSERT_EFI_ERROR (Status);
; 202  : 
; 203  : }

  00024	c3		 ret	 0
ProcessLibraryConstructorList ENDP
_TEXT	ENDS
; Function compile flags: /Ogspy
; File c:\projetos\caiuxo\uefi_app\release_vs2015x86\x64\myhelloworld\debug\autogen.c
;	COMDAT ProcessLibraryDestructorList
_TEXT	SEGMENT
ImageHandle$dead$ = 8
SystemTable$dead$ = 16
ProcessLibraryDestructorList PROC			; COMDAT

; 214  : 
; 215  : }

  00000	c2 00 00	 ret	 0
ProcessLibraryDestructorList ENDP
_TEXT	ENDS
xdata	ENDS
END
