; Listing generated by Microsoft (R) Optimizing Compiler Version 19.00.24210.0 

include listing.inc

INCLUDELIB OLDNAMES

PUBLIC	??_C@_1BM@IDMFOBAL@?$AAH?$AAe?$AAl?$AAl?$AAo?$AA?5?$AAW?$AAo?$AAr?$AAl?$AAd?$AA?5?$AA?6?$AA?$AA@ ; `string'
;	COMDAT ??_C@_1BM@IDMFOBAL@?$AAH?$AAe?$AAl?$AAl?$AAo?$AA?5?$AAW?$AAo?$AAr?$AAl?$AAd?$AA?5?$AA?6?$AA?$AA@
CONST	SEGMENT
??_C@_1BM@IDMFOBAL@?$AAH?$AAe?$AAl?$AAl?$AAo?$AA?5?$AAW?$AAo?$AAr?$AAl?$AAd?$AA?5?$AA?6?$AA?$AA@ DB 'H'
	DB	00H, 'e', 00H, 'l', 00H, 'l', 00H, 'o', 00H, ' ', 00H, 'W', 00H
	DB	'o', 00H, 'r', 00H, 'l', 00H, 'd', 00H, ' ', 00H, 0aH, 00H, 00H
	DB	00H						; `string'
PUBLIC	UefiMain
;	COMDAT pdata
pdata	SEGMENT
$pdata$UefiMain DD imagerel $LN4
	DD	imagerel $LN4+23
	DD	imagerel $unwind$UefiMain
pdata	ENDS
;	COMDAT xdata
xdata	SEGMENT
$unwind$UefiMain DD 010401H
	DD	04204H
; Function compile flags: /Ogspy
; File c:\projetos\caiuxo\uefi_app\myhelloworld.c
;	COMDAT UefiMain
_TEXT	SEGMENT
ImageHandle$dead$ = 48
SystemTable$dead$ = 56
UefiMain PROC						; COMDAT

; 28   : {

$LN4:
  00000	48 83 ec 28	 sub	 rsp, 40			; 00000028H

; 29   :   Print(L"Hello World \n"); 

  00004	48 8d 0d 00 00
	00 00		 lea	 rcx, OFFSET FLAT:??_C@_1BM@IDMFOBAL@?$AAH?$AAe?$AAl?$AAl?$AAo?$AA?5?$AAW?$AAo?$AAr?$AAl?$AAd?$AA?5?$AA?6?$AA?$AA@
  0000b	e8 00 00 00 00	 call	 Print

; 30   :   return EFI_SUCCESS;

  00010	33 c0		 xor	 eax, eax

; 31   : }

  00012	48 83 c4 28	 add	 rsp, 40			; 00000028H
  00016	c3		 ret	 0
UefiMain ENDP
_TEXT	ENDS
END
